target datalayout = "e-m:e-p270:32:32-p271:32:32-p272:64:64-i64:64-i128:128-f80:128-n8:16:32:64-S128"
target triple = "x86_64-pc-linux-gnu"

%struct.ct_data_s = type { %union.anon, %union.anon.0 }
%union.anon = type { i16 }
%union.anon.0 = type { i16 }
%struct.MOZ_Z_internal_state = type { ptr, i32, ptr, i64, ptr, i32, i32, ptr, i32, i8, i32, [12 x i8], [20 x i32], i32, i32, i32, ptr, i64, ptr, ptr, i32, i32, i32, i32, i32, ptr, [256 x i32], i64, i32, i32, i32, i32, i32, i32, i32, i32, i32, i32, i32, i32, i32, [573 x %struct.ct_data_s], [61 x %struct.ct_data_s], [39 x %struct.ct_data_s], %struct.tree_desc_s, %struct.tree_desc_s, %struct.tree_desc_s, [16 x i16], [573 x i32], i32, i32, [573 x i8], ptr, i32, i32, ptr, i64, i64, i32, i32, i16, i32, i64, [8 x i8] }
%struct.tree_desc_s = type { ptr, i32, ptr }

; Function Attrs: nounwind uwtable
define i32 @MOZ_Z__tr_tally(ptr noundef %0, i32 noundef %1, i32 noundef %2) #0 {
  %4 = alloca ptr, align 8
  %5 = alloca i32, align 4
  %6 = alloca i32, align 4
  store ptr %0, ptr %4, align 8, !tbaa !3
  store i32 %1, ptr %5, align 4, !tbaa !27
  store i32 %2, ptr %6, align 4, !tbaa !27
  %7 = load i32, ptr %5, align 4, !tbaa !27
  %8 = trunc i32 %7 to i16
  %9 = load ptr, ptr %4, align 8, !tbaa !3
  %10 = getelementptr inbounds nuw %struct.MOZ_Z_internal_state, ptr %9, i32 0, i32 55
  %11 = load ptr, ptr %10, align 8, !tbaa !68
  %12 = load ptr, ptr %4, align 8, !tbaa !3
  %13 = getelementptr inbounds nuw %struct.MOZ_Z_internal_state, ptr %12, i32 0, i32 54
  %14 = load i32, ptr %13, align 4, !tbaa !36
  %15 = zext i32 %14 to i64
  %16 = getelementptr inbounds nuw i16, ptr %11, i64 %15
  store i16 %8, ptr %16, align 2, !tbaa !69
  %17 = load i32, ptr %6, align 4, !tbaa !27
  %18 = trunc i32 %17 to i8
  %19 = load ptr, ptr %4, align 8, !tbaa !3
  %20 = getelementptr inbounds nuw %struct.MOZ_Z_internal_state, ptr %19, i32 0, i32 52
  %21 = load ptr, ptr %20, align 8, !tbaa !70
  %22 = load ptr, ptr %4, align 8, !tbaa !3
  %23 = getelementptr inbounds nuw %struct.MOZ_Z_internal_state, ptr %22, i32 0, i32 54
  %24 = load i32, ptr %23, align 4, !tbaa !36
  %25 = add i32 %24, 1
  store i32 %25, ptr %23, align 4, !tbaa !36
  %26 = zext i32 %24 to i64
  %27 = getelementptr inbounds nuw i8, ptr %21, i64 %26
  store i8 %18, ptr %27, align 1, !tbaa !28
  %28 = load i32, ptr %5, align 4, !tbaa !27
  %29 = icmp eq i32 %28, 0
  br i1 %29, label %30, label %39

30:                                               ; preds = %3
  %31 = load ptr, ptr %4, align 8, !tbaa !3
  %32 = getelementptr inbounds nuw %struct.MOZ_Z_internal_state, ptr %31, i32 0, i32 41
  %33 = load i32, ptr %6, align 4, !tbaa !27
  %34 = zext i32 %33 to i64
  %35 = getelementptr inbounds nuw [573 x %struct.ct_data_s], ptr %32, i64 0, i64 %34
  %36 = getelementptr inbounds nuw %struct.ct_data_s, ptr %35, i32 0, i32 0
  %37 = load i16, ptr %36, align 4, !tbaa !28
  %38 = add i16 %37, 1
  store i16 %38, ptr %36, align 4, !tbaa !28
  br label %85

39:                                               ; preds = %3
  %40 = load ptr, ptr %4, align 8, !tbaa !3
  %41 = getelementptr inbounds nuw %struct.MOZ_Z_internal_state, ptr %40, i32 0, i32 58
  %42 = load i32, ptr %41, align 16, !tbaa !35
  %43 = add i32 %42, 1
  store i32 %43, ptr %41, align 16, !tbaa !35
  %44 = load i32, ptr %5, align 4, !tbaa !27
  %45 = add i32 %44, -1
  store i32 %45, ptr %5, align 4, !tbaa !27
  %46 = load ptr, ptr %4, align 8, !tbaa !3
  %47 = getelementptr inbounds nuw %struct.MOZ_Z_internal_state, ptr %46, i32 0, i32 41
  %48 = load i32, ptr %6, align 4, !tbaa !27
  %49 = zext i32 %48 to i64
  %50 = getelementptr inbounds nuw [256 x i8], ptr @MOZ_Z__length_code, i64 0, i64 %49
  %51 = load i8, ptr %50, align 1, !tbaa !28
  %52 = zext i8 %51 to i32
  %53 = add nsw i32 %52, 256
  %54 = add nsw i32 %53, 1
  %55 = sext i32 %54 to i64
  %56 = getelementptr inbounds [573 x %struct.ct_data_s], ptr %47, i64 0, i64 %55
  %57 = getelementptr inbounds nuw %struct.ct_data_s, ptr %56, i32 0, i32 0
  %58 = load i16, ptr %57, align 4, !tbaa !28
  %59 = add i16 %58, 1
  store i16 %59, ptr %57, align 4, !tbaa !28
  %60 = load ptr, ptr %4, align 8, !tbaa !3
  %61 = getelementptr inbounds nuw %struct.MOZ_Z_internal_state, ptr %60, i32 0, i32 42
  %62 = load i32, ptr %5, align 4, !tbaa !27
  %63 = icmp ult i32 %62, 256
  br i1 %63, label %64, label %70

64:                                               ; preds = %39
  %65 = load i32, ptr %5, align 4, !tbaa !27
  %66 = zext i32 %65 to i64
  %67 = getelementptr inbounds nuw [512 x i8], ptr @MOZ_Z__dist_code, i64 0, i64 %66
  %68 = load i8, ptr %67, align 1, !tbaa !28
  %69 = zext i8 %68 to i32
  br label %78

70:                                               ; preds = %39
  %71 = load i32, ptr %5, align 4, !tbaa !27
  %72 = lshr i32 %71, 7
  %73 = add i32 256, %72
  %74 = zext i32 %73 to i64
  %75 = getelementptr inbounds nuw [512 x i8], ptr @MOZ_Z__dist_code, i64 0, i64 %74
  %76 = load i8, ptr %75, align 1, !tbaa !28
  %77 = zext i8 %76 to i32
  br label %78

78:                                               ; preds = %70, %64
  %79 = phi i32 [ %69, %64 ], [ %77, %70 ]
  %80 = sext i32 %79 to i64
  %81 = getelementptr inbounds [61 x %struct.ct_data_s], ptr %61, i64 0, i64 %80
  %82 = getelementptr inbounds nuw %struct.ct_data_s, ptr %81, i32 0, i32 0
  %83 = load i16, ptr %82, align 4, !tbaa !28
  %84 = add i16 %83, 1
  store i16 %84, ptr %82, align 4, !tbaa !28
  br label %85

85:                                               ; preds = %78, %30
  %86 = load ptr, ptr %4, align 8, !tbaa !3
  %87 = getelementptr inbounds nuw %struct.MOZ_Z_internal_state, ptr %86, i32 0, i32 54
  %88 = load i32, ptr %87, align 4, !tbaa !36
  %89 = load ptr, ptr %4, align 8, !tbaa !3
  %90 = getelementptr inbounds nuw %struct.MOZ_Z_internal_state, ptr %89, i32 0, i32 53
  %91 = load i32, ptr %90, align 16, !tbaa !73
  %92 = sub i32 %91, 1
  %93 = icmp eq i32 %88, %92
  %94 = zext i1 %93 to i32
  ret i32 %94
}