; Function Attrs: mustprogress nofree norecurse nosync nounwind willreturn memory(write, argmem: readwrite, inaccessiblemem: none) uwtable
define range(i32 0, 2) i32 @MOZ_Z__tr_tally(ptr noundef captures(none) %0, i32 noundef %1, i32 noundef %2) local_unnamed_addr #3 {
  %4 = trunc i32 %1 to i16
  %5 = getelementptr inbounds nuw i8, ptr %0, i64 7016
  %6 = load ptr, ptr %5, align 8, !tbaa !76
  %7 = getelementptr inbounds nuw i8, ptr %0, i64 7012
  %8 = load i32, ptr %7, align 4, !tbaa !30
  %9 = zext i32 %8 to i64
  %10 = getelementptr inbounds nuw i16, ptr %6, i64 %9
  store i16 %4, ptr %10, align 2, !tbaa !67
  %11 = trunc i32 %2 to i8
  %12 = getelementptr inbounds nuw i8, ptr %0, i64 7000
  %13 = load ptr, ptr %12, align 8, !tbaa !77
  %14 = add i32 %8, 1
  store i32 %14, ptr %7, align 4, !tbaa !30
  %15 = getelementptr inbounds nuw i8, ptr %13, i64 %9
  store i8 %11, ptr %15, align 1, !tbaa !25
  %16 = icmp eq i32 %1, 0
  br i1 %16, label %17, label %23

17:                                               ; preds = %3
  %18 = getelementptr inbounds nuw i8, ptr %0, i64 1324
  %19 = zext i32 %2 to i64
  %20 = getelementptr inbounds nuw [573 x %struct.ct_data_s], ptr %18, i64 0, i64 %19
  %21 = load i16, ptr %20, align 4, !tbaa !25
  %22 = add i16 %21, 1
  store i16 %22, ptr %20, align 4, !tbaa !25
  br label %45

23:                                               ; preds = %3
  %24 = getelementptr inbounds nuw i8, ptr %0, i64 7040
  %25 = load i32, ptr %24, align 16, !tbaa !79
  %26 = add i32 %25, 1
  store i32 %26, ptr %24, align 16, !tbaa !79
  %27 = add i32 %1, -1
  %28 = getelementptr inbounds nuw i8, ptr %0, i64 1324
  %29 = zext i32 %2 to i64
  %30 = getelementptr inbounds nuw [256 x i8], ptr @MOZ_Z__length_code, i64 0, i64 %29
  %31 = load i8, ptr %30, align 1, !tbaa !25
  %32 = zext i8 %31 to i64
  %33 = add nuw nsw i64 %32, 257
  %34 = getelementptr inbounds nuw [573 x %struct.ct_data_s], ptr %28, i64 0, i64 %33
  %35 = load i16, ptr %34, align 4, !tbaa !25
  %36 = add i16 %35, 1
  store i16 %36, ptr %34, align 4, !tbaa !25
  %37 = getelementptr inbounds nuw i8, ptr %0, i64 3616
  %38 = icmp ult i32 %1, 257
  %39 = lshr i32 %27, 7
  %40 = add nuw nsw i32 %39, 256
  %.pn.in = select i1 %38, i32 %27, i32 %40
  %.pn = zext nneg i32 %.pn.in to i64
  %.in.in = getelementptr inbounds nuw [512 x i8], ptr @MOZ_Z__dist_code, i64 0, i64 %.pn
  %.in = load i8, ptr %.in.in, align 1, !tbaa !25
  %41 = zext i8 %.in to i64
  %42 = getelementptr inbounds nuw [61 x %struct.ct_data_s], ptr %37, i64 0, i64 %41
  %43 = load i16, ptr %42, align 4, !tbaa !25
  %44 = add i16 %43, 1
  store i16 %44, ptr %42, align 4, !tbaa !25
  br label %45

45:                                               ; preds = %23, %17
  %46 = load i32, ptr %7, align 4, !tbaa !30
  %47 = getelementptr inbounds nuw i8, ptr %0, i64 7008
  %48 = load i32, ptr %47, align 16, !tbaa !80
  %49 = add i32 %48, -1
  %50 = icmp eq i32 %46, %49
  %51 = zext i1 %50 to i32
  ret i32 %51
}